; Function Attrs: mustprogress uwtable
define hidden noundef nonnull align 8 dereferenceable(8) ptr @_ZNK3sat12local_search7displayERSo(ptr noundef nonnull readonly align 8 captures(none) dereferenceable(232) %0, ptr noundef nonnull returned align 8 dereferenceable(8) %1) local_unnamed_addr #3 align 2 {
  %3 = getelementptr inbounds nuw i8, ptr %0, i64 64
  %4 = load ptr, ptr %3, align 8, !tbaa !72
  %5 = icmp eq ptr %4, null
  br i1 %5, label %.preheader, label %_ZNK6vectorIN3sat12local_search10constraintELb1EjE3endEv.exit

_ZNK6vectorIN3sat12local_search10constraintELb1EjE3endEv.exit: ; preds = %2
  %6 = getelementptr inbounds i8, ptr %4, i64 -4
  %7 = load i32, ptr %6, align 4, !tbaa !13
  %8 = zext i32 %7 to i64
  %9 = getelementptr inbounds nuw %"struct.sat::local_search::constraint", ptr %4, i64 %8
  %.not16 = icmp eq i32 %7, 0
  br i1 %.not16, label %.preheader, label %.lr.ph

.preheader:                                       ; preds = %.lr.ph, %2, %_ZNK6vectorIN3sat12local_search10constraintELb1EjE3endEv.exit
  %10 = getelementptr inbounds nuw i8, ptr %0, i64 40
  br label %13

.lr.ph:                                           ; preds = %_ZNK6vectorIN3sat12local_search10constraintELb1EjE3endEv.exit, %.lr.ph
  %.01417 = phi ptr [ %12, %.lr.ph ], [ %4, %_ZNK6vectorIN3sat12local_search10constraintELb1EjE3endEv.exit ]
  %11 = tail call noundef nonnull align 8 dereferenceable(8) ptr @_ZNK3sat12local_search7displayERSoRKNS0_10constraintE(ptr noundef nonnull align 8 dereferenceable(232) %0, ptr noundef nonnull align 8 dereferenceable(8) %1, ptr noundef nonnull align 8 dereferenceable(32) %.01417)
  %12 = getelementptr inbounds nuw i8, ptr %.01417, i64 32
  %.not = icmp eq ptr %12, %9
  br i1 %.not, label %.preheader, label %.lr.ph

13:                                               ; preds = %.preheader, %23
  %indvars.iv = phi i64 [ 0, %.preheader ], [ %indvars.iv.next, %23 ]
  %14 = load ptr, ptr %10, align 8, !tbaa !49
  %15 = icmp eq ptr %14, null
  br i1 %15, label %_ZNK3sat12local_search8num_varsEv.exit, label %16

16:                                               ; preds = %13
  %17 = getelementptr inbounds i8, ptr %14, i64 -4
  %18 = load i32, ptr %17, align 4, !tbaa !13
  %19 = add i32 %18, -1
  %20 = zext i32 %19 to i64
  br label %_ZNK3sat12local_search8num_varsEv.exit

_ZNK3sat12local_search8num_varsEv.exit:           ; preds = %13, %16
  %.0.i.i15 = phi i64 [ %20, %16 ], [ 4294967295, %13 ]
  %21 = icmp samesign ult i64 %indvars.iv, %.0.i.i15
  br i1 %21, label %23, label %22

22:                                               ; preds = %_ZNK3sat12local_search8num_varsEv.exit
  ret ptr %1

23:                                               ; preds = %_ZNK3sat12local_search8num_varsEv.exit
  %24 = getelementptr inbounds nuw %"struct.sat::local_search::var_info", ptr %14, i64 %indvars.iv
  %25 = trunc nuw i64 %indvars.iv to i32
  %26 = tail call noundef nonnull align 8 dereferenceable(8) ptr @_ZNK3sat12local_search7displayERSojRKNS0_8var_infoE(ptr nonnull align 8 poison, ptr noundef nonnull align 8 dereferenceable(8) %1, i32 noundef %25, ptr noundef nonnull align 8 dereferenceable(120) %24)
  %indvars.iv.next = add nuw nsw i64 %indvars.iv, 1
  br label %13, !llvm.loop !304
}